target datalayout = "e-m:e-p270:32:32-p271:32:32-p272:64:64-i64:64-i128:128-f80:128-n8:16:32:64-S128"
target triple = "x86_64-pc-linux-gnu"

@.str = private unnamed_addr constant [8 x i8] c"http://\00", align 1
@.str.1 = private unnamed_addr constant [9 x i8] c"https://\00", align 1

; Function Attrs: nounwind uwtable
define dso_local zeroext i1 @output_expected(ptr noundef %0, ptr noundef %1) #0 {
  %3 = alloca i1, align 1
  %4 = alloca ptr, align 8
  %5 = alloca ptr, align 8
  store ptr %0, ptr %4, align 8, !tbaa !32
  store ptr %1, ptr %5, align 8, !tbaa !32
  %6 = load ptr, ptr %5, align 8, !tbaa !32
  %7 = icmp ne ptr %6, null
  br i1 %7, label %9, label %8

8:                                                ; preds = %2
  store i1 true, ptr %3, align 1
  br label %19

9:                                                ; preds = %2
  %10 = load ptr, ptr %4, align 8, !tbaa !32
  %11 = call i32 @curl_strnequal(ptr noundef %10, ptr noundef @.str, i64 noundef 7)
  %12 = icmp ne i32 %11, 0
  br i1 %12, label %17, label %13

13:                                               ; preds = %9
  %14 = load ptr, ptr %4, align 8, !tbaa !32
  %15 = call i32 @curl_strnequal(ptr noundef %14, ptr noundef @.str.1, i64 noundef 8)
  %16 = icmp ne i32 %15, 0
  br i1 %16, label %17, label %18

17:                                               ; preds = %13, %9
  store i1 true, ptr %3, align 1
  br label %19

18:                                               ; preds = %13
  store i1 false, ptr %3, align 1
  br label %19

19:                                               ; preds = %18, %17, %8
  %20 = load i1, ptr %3, align 1
  ret i1 %20
}