; Function Attrs: nounwind uwtable
define dso_local zeroext i1 @output_expected(ptr noundef %0, ptr noundef readnone %1) local_unnamed_addr #0 {
  %.not = icmp eq ptr %1, null
  br i1 %.not, label %7, label %3

3:                                                ; preds = %2
  %4 = tail call i32 @curl_strnequal(ptr noundef %0, ptr noundef nonnull @.str, i64 noundef 7) #8
  %.not4 = icmp eq i32 %4, 0
  br i1 %.not4, label %5, label %7

5:                                                ; preds = %3
  %6 = tail call i32 @curl_strnequal(ptr noundef %0, ptr noundef nonnull @.str.1, i64 noundef 8) #8
  %.not5 = icmp ne i32 %6, 0
  br label %7

7:                                                ; preds = %5, %3, %2
  %.0 = phi i1 [ true, %2 ], [ true, %3 ], [ %.not5, %5 ]
  ret i1 %.0
}